; Function Attrs: mustprogress uwtable
define dso_local void @_ZN11btRigidBodyC2ERKNS_27btRigidBodyConstructionInfoE(ptr noundef nonnull align 8 dereferenceable(744) %this, ptr nocapture noundef nonnull readonly align 8 dereferenceable(156) %constructionInfo) unnamed_addr #0 align 2 personality ptr @__gxx_personality_v0 {
invoke.cont10:
  tail call void @_ZN17btCollisionObjectC2Ev(ptr noundef nonnull align 8 dereferenceable(372) %this)
  store ptr getelementptr inbounds ({ [9 x ptr] }, ptr @_ZTV11btRigidBody, i64 0, i32 0, i64 2), ptr %this, align 8
  %m_ownsMemory.i.i = getelementptr inbounds i8, ptr %this, i64 624
  store i8 1, ptr %m_ownsMemory.i.i, align 8
  %m_data.i.i = getelementptr inbounds i8, ptr %this, i64 616
  store ptr null, ptr %m_data.i.i, align 8
  %m_size.i.i = getelementptr inbounds i8, ptr %this, i64 604
  store i32 0, ptr %m_size.i.i, align 4
  %m_capacity.i.i = getelementptr inbounds i8, ptr %this, i64 608
  store i32 0, ptr %m_capacity.i.i, align 8
  invoke void @_ZN11btRigidBody14setupRigidBodyERKNS_27btRigidBodyConstructionInfoE(ptr noundef nonnull align 8 dereferenceable(744) %this, ptr noundef nonnull align 8 dereferenceable(156) %constructionInfo)
          to label %invoke.cont18 unwind label %lpad11

invoke.cont18:                                    ; preds = %invoke.cont10
  ret void

lpad11:                                           ; preds = %invoke.cont10
  %0 = landingpad { ptr, i32 }
          cleanup
  %m_constraintRefs = getelementptr inbounds i8, ptr %this, i64 600
  tail call void @_ZN20btAlignedObjectArrayIP17btTypedConstraintED2Ev(ptr noundef nonnull align 8 dereferenceable(25) %m_constraintRefs) #22
  tail call void @_ZN17btCollisionObjectD2Ev(ptr noundef nonnull align 8 dereferenceable(372) %this) #22
  resume { ptr, i32 } %0
}